target datalayout = "e-m:e-p270:32:32-p271:32:32-p272:64:64-i64:64-i128:128-f80:128-n8:16:32:64-S128"
target triple = "x86_64-pc-linux-gnu"

%struct.slurm_conf_t = type { i64, ptr, i16, ptr, ptr, ptr, ptr, ptr, i16, ptr, ptr, ptr, ptr, ptr, ptr, ptr, i16, ptr, ptr, ptr, ptr, i16, ptr, ptr, ptr, i64, ptr, ptr, ptr, ptr, i16, ptr, ptr, i16, i32, ptr, i32, ptr, i32, i32, ptr, ptr, i64, i64, ptr, i16, i16, ptr, i32, i32, ptr, i32, ptr, i32, i16, i16, i16, ptr, i16, i16, ptr, ptr, i32, i16, i16, ptr, i32, i16, ptr, ptr, ptr, ptr, i16, ptr, ptr, ptr, ptr, i32, ptr, ptr, ptr, ptr, i16, i16, ptr, i32, i32, i32, i16, i16, ptr, ptr, i16, ptr, ptr, i32, i32, i32, i32, i32, i64, i32, i32, i16, ptr, ptr, i32, ptr, ptr, ptr, i16, i32, ptr, ptr, i16, ptr, ptr, i32, i16, ptr, ptr, ptr, ptr, i32, i32, i16, i16, i32, ptr, i16, ptr, i32, i32, i32, i32, i32, i32, ptr, i16, ptr, ptr, i32, i16, ptr, i32, i16, i16, ptr, ptr, ptr, i16, ptr, ptr, ptr, ptr, i16, i16, ptr, i16, ptr, i16, ptr, i16, ptr, i16, ptr, ptr, ptr, ptr, i16, ptr, ptr, ptr, i32, ptr, i32, ptr, ptr, i16, ptr, ptr, i32, i16, ptr, ptr, i16, i16, ptr, i16, ptr, ptr, ptr, i32, ptr, i16, i16, ptr, ptr, ptr, ptr, ptr, ptr, ptr, ptr, i16, i32, i16, ptr, ptr, ptr, ptr, i32, ptr, ptr, ptr, i16, ptr, ptr, ptr, i16, ptr, i16, ptr, i16, i16, ptr }
%struct.DBusMessageIter = type { ptr, ptr, i32, i32, i32, i32, i32, i32, i32, i32, i32, i32, ptr, ptr }

@slurm_conf = external global %struct.slurm_conf_t, align 8
@plugin_type = external constant [0 x i8], align 1
@.str.18 = private unnamed_addr constant [47 x i8] c"%s: %s: CGROUP: Possibly created new scope: %s\00", align 1
@__func__._process_and_close_reply_msg = private unnamed_addr constant [29 x i8] c"_process_and_close_reply_msg\00", align 1
@.str.19 = private unnamed_addr constant [66 x i8] c"%s: %s: CGROUP: The unit may already exist or we got an error: %s\00", align 1
@.str.20 = private unnamed_addr constant [52 x i8] c"%s: Invalid response type %c not supported by Slurm\00", align 1

; Function Attrs: nounwind uwtable
define internal i32 @_process_and_close_reply_msg(ptr noundef %0) #0 {
  %2 = alloca ptr, align 8
  %3 = alloca %struct.DBusMessageIter, align 8
  %4 = alloca i32, align 4
  %5 = alloca i32, align 4
  %6 = alloca ptr, align 8
  store ptr %0, ptr %2, align 8
  call void @llvm.lifetime.start.p0(i64 72, ptr %3) #5
  call void @llvm.lifetime.start.p0(i64 4, ptr %4) #5
  call void @llvm.lifetime.start.p0(i64 4, ptr %5) #5
  store i32 0, ptr %5, align 4
  call void @llvm.lifetime.start.p0(i64 8, ptr %6) #5
  %7 = load ptr, ptr %2, align 8
  %8 = call i32 @dbus_message_iter_init(ptr noundef %7, ptr noundef %3)
  br label %9

9:                                                ; preds = %50, %1
  %10 = call i32 @dbus_message_iter_get_arg_type(ptr noundef %3)
  store i32 %10, ptr %4, align 4
  %11 = load i32, ptr %4, align 4
  switch i32 %11, label %46 [
    i32 111, label %12
    i32 115, label %29
    i32 103, label %29
  ]

12:                                               ; preds = %9
  call void @dbus_message_iter_get_basic(ptr noundef %3, ptr noundef %6)
  br label %13

13:                                               ; preds = %12
  %14 = load i64, ptr getelementptr inbounds nuw (%struct.slurm_conf_t, ptr @slurm_conf, i32 0, i32 42), align 8
  %15 = and i64 %14, 36028797018963968
  %16 = icmp ne i64 %15, 0
  br i1 %16, label %17, label %26

17:                                               ; preds = %13
  br label %18

18:                                               ; preds = %17
  %19 = call i32 @get_log_level()
  %20 = icmp sge i32 %19, 4
  br i1 %20, label %21, label %23

21:                                               ; preds = %18
  %22 = load ptr, ptr %6, align 8
  call void (i32, ptr, ...) @log_var(i32 noundef 4, ptr noundef @.str.18, ptr noundef @plugin_type, ptr noundef @__func__._process_and_close_reply_msg, ptr noundef %22)
  br label %23

23:                                               ; preds = %21, %18
  br label %24

24:                                               ; preds = %23
  br label %25

25:                                               ; preds = %24
  br label %26

26:                                               ; preds = %25, %13
  br label %27

27:                                               ; preds = %26
  br label %28

28:                                               ; preds = %27
  br label %49

29:                                               ; preds = %9, %9
  store i32 -1, ptr %5, align 4
  call void @dbus_message_iter_get_basic(ptr noundef %3, ptr noundef %6)
  br label %30

30:                                               ; preds = %29
  %31 = load i64, ptr getelementptr inbounds nuw (%struct.slurm_conf_t, ptr @slurm_conf, i32 0, i32 42), align 8
  %32 = and i64 %31, 36028797018963968
  %33 = icmp ne i64 %32, 0
  br i1 %33, label %34, label %43

34:                                               ; preds = %30
  br label %35

35:                                               ; preds = %34
  %36 = call i32 @get_log_level()
  %37 = icmp sge i32 %36, 4
  br i1 %37, label %38, label %40

38:                                               ; preds = %35
  %39 = load ptr, ptr %6, align 8
  call void (i32, ptr, ...) @log_var(i32 noundef 4, ptr noundef @.str.19, ptr noundef @plugin_type, ptr noundef @__func__._process_and_close_reply_msg, ptr noundef %39)
  br label %40

40:                                               ; preds = %38, %35
  br label %41

41:                                               ; preds = %40
  br label %42

42:                                               ; preds = %41
  br label %43

43:                                               ; preds = %42, %30
  br label %44

44:                                               ; preds = %43
  br label %45

45:                                               ; preds = %44
  br label %49

46:                                               ; preds = %9
  store i32 -1, ptr %5, align 4
  %47 = load i32, ptr %4, align 4
  %48 = call i32 (ptr, ...) @error(ptr noundef @.str.20, ptr noundef @__func__._process_and_close_reply_msg, i32 noundef %47)
  br label %49

49:                                               ; preds = %46, %45, %28
  br label %50

50:                                               ; preds = %49
  %51 = call i32 @dbus_message_iter_next(ptr noundef %3)
  %52 = icmp ne i32 %51, 0
  br i1 %52, label %9, label %53, !llvm.loop !10

53:                                               ; preds = %50
  %54 = load ptr, ptr %2, align 8
  call void @dbus_message_unref(ptr noundef %54)
  %55 = load i32, ptr %5, align 4
  call void @llvm.lifetime.end.p0(i64 8, ptr %6) #5
  call void @llvm.lifetime.end.p0(i64 4, ptr %5) #5
  call void @llvm.lifetime.end.p0(i64 4, ptr %4) #5
  call void @llvm.lifetime.end.p0(i64 72, ptr %3) #5
  ret i32 %55
}