; Function Attrs: nounwind uwtable
define internal fastcc range(i32 -1, 1) i32 @_process_and_close_reply_msg(ptr noundef nonnull %0) unnamed_addr #0 {
  %2 = alloca %struct.DBusMessageIter, align 8
  %3 = alloca ptr, align 8
  call void @llvm.lifetime.start.p0(i64 72, ptr nonnull %2) #5
  call void @llvm.lifetime.start.p0(i64 8, ptr nonnull %3) #5
  %4 = call i32 @dbus_message_iter_init(ptr noundef nonnull %0, ptr noundef nonnull %2) #5
  br label %5

5:                                                ; preds = %25, %1
  %.0 = phi i32 [ 0, %1 ], [ %.1, %25 ]
  %6 = call i32 @dbus_message_iter_get_arg_type(ptr noundef nonnull %2) #5
  switch i32 %6, label %23 [
    i32 111, label %7
    i32 115, label %15
    i32 103, label %15
  ]

7:                                                ; preds = %5
  call void @dbus_message_iter_get_basic(ptr noundef nonnull %2, ptr noundef nonnull %3) #5
  %8 = load i64, ptr getelementptr inbounds nuw (i8, ptr @slurm_conf, i64 320), align 8
  %9 = and i64 %8, 36028797018963968
  %.not4 = icmp eq i64 %9, 0
  br i1 %.not4, label %25, label %10

10:                                               ; preds = %7
  %11 = call i32 @get_log_level() #5
  %12 = icmp sgt i32 %11, 3
  br i1 %12, label %13, label %25

13:                                               ; preds = %10
  %14 = load ptr, ptr %3, align 8
  call void (i32, ptr, ...) @log_var(i32 noundef 4, ptr noundef nonnull @.str.18, ptr noundef nonnull @plugin_type, ptr noundef nonnull @__func__._process_and_close_reply_msg, ptr noundef %14) #5
  br label %25

15:                                               ; preds = %5, %5
  call void @dbus_message_iter_get_basic(ptr noundef nonnull %2, ptr noundef nonnull %3) #5
  %16 = load i64, ptr getelementptr inbounds nuw (i8, ptr @slurm_conf, i64 320), align 8
  %17 = and i64 %16, 36028797018963968
  %.not = icmp eq i64 %17, 0
  br i1 %.not, label %25, label %18

18:                                               ; preds = %15
  %19 = call i32 @get_log_level() #5
  %20 = icmp sgt i32 %19, 3
  br i1 %20, label %21, label %25

21:                                               ; preds = %18
  %22 = load ptr, ptr %3, align 8
  call void (i32, ptr, ...) @log_var(i32 noundef 4, ptr noundef nonnull @.str.19, ptr noundef nonnull @plugin_type, ptr noundef nonnull @__func__._process_and_close_reply_msg, ptr noundef %22) #5
  br label %25

23:                                               ; preds = %5
  %24 = call i32 (ptr, ...) @error(ptr noundef nonnull @.str.20, ptr noundef nonnull @__func__._process_and_close_reply_msg, i32 noundef %6) #5
  br label %25

25:                                               ; preds = %23, %10, %13, %7, %18, %21, %15
  %.1 = phi i32 [ -1, %23 ], [ -1, %21 ], [ -1, %18 ], [ -1, %15 ], [ %.0, %13 ], [ %.0, %10 ], [ %.0, %7 ]
  %26 = call i32 @dbus_message_iter_next(ptr noundef nonnull %2) #5
  %.not5 = icmp eq i32 %26, 0
  br i1 %.not5, label %27, label %5, !llvm.loop !8

27:                                               ; preds = %25
  call void @dbus_message_unref(ptr noundef nonnull %0) #5
  call void @llvm.lifetime.end.p0(i64 8, ptr nonnull %3) #5
  call void @llvm.lifetime.end.p0(i64 72, ptr nonnull %2) #5
  ret i32 %.1
}